target datalayout = "e-m:e-p270:32:32-p271:32:32-p272:64:64-i64:64-i128:128-f80:128-n8:16:32:64-S128"
target triple = "x86_64-pc-linux-gnu"

%struct.ossl_cc_newreno_st = type { ptr, ptr, i64, i64, i32, i32, i32, i64, i64, i64, i64, i64, %struct.OSSL_TIME, i32, %struct.OSSL_TIME, i32, ptr, ptr, ptr, ptr, ptr }
%struct.OSSL_TIME = type { i64 }

@.str.1 = private unnamed_addr constant [22 x i8] c"max_dgram_payload_len\00", align 1
@.str.2 = private unnamed_addr constant [14 x i8] c"cur_cwnd_size\00", align 1
@.str.3 = private unnamed_addr constant [14 x i8] c"min_cwnd_size\00", align 1
@.str.4 = private unnamed_addr constant [16 x i8] c"bytes_in_flight\00", align 1
@.str.5 = private unnamed_addr constant [10 x i8] c"cur_state\00", align 1

; Function Attrs: nounwind uwtable
define internal void @unbind_diag(ptr noundef %0, ptr noundef %1, ptr noundef %2) #0 {
  %4 = alloca ptr, align 8
  %5 = alloca ptr, align 8
  %6 = alloca ptr, align 8
  %7 = alloca ptr, align 8
  store ptr %0, ptr %4, align 8, !tbaa !31
  store ptr %1, ptr %5, align 8, !tbaa !54
  store ptr %2, ptr %6, align 8, !tbaa !3
  call void @llvm.lifetime.start.p0(i64 8, ptr %7) #6
  %8 = load ptr, ptr %4, align 8, !tbaa !31
  %9 = load ptr, ptr %5, align 8, !tbaa !54
  %10 = call ptr @OSSL_PARAM_locate_const(ptr noundef %8, ptr noundef %9)
  store ptr %10, ptr %7, align 8, !tbaa !31
  %11 = load ptr, ptr %7, align 8, !tbaa !31
  %12 = icmp ne ptr %11, null
  br i1 %12, label %13, label %15

13:                                               ; preds = %3
  %14 = load ptr, ptr %6, align 8, !tbaa !3
  store ptr null, ptr %14, align 8, !tbaa !3
  br label %15

15:                                               ; preds = %13, %3
  call void @llvm.lifetime.end.p0(i64 8, ptr %7) #6
  ret void
}

; Function Attrs: nounwind uwtable
define internal i32 @newreno_unbind_diagnostic(ptr noundef %0, ptr noundef %1) #0 {
  %3 = alloca ptr, align 8
  %4 = alloca ptr, align 8
  %5 = alloca ptr, align 8
  store ptr %0, ptr %3, align 8, !tbaa !17
  store ptr %1, ptr %4, align 8, !tbaa !31
  call void @llvm.lifetime.start.p0(i64 8, ptr %5) #6
  %6 = load ptr, ptr %3, align 8, !tbaa !17
  store ptr %6, ptr %5, align 8, !tbaa !7
  %7 = load ptr, ptr %4, align 8, !tbaa !31
  %8 = load ptr, ptr %5, align 8, !tbaa !7
  %9 = getelementptr inbounds nuw %struct.ossl_cc_newreno_st, ptr %8, i32 0, i32 16
  call void @unbind_diag(ptr noundef %7, ptr noundef @.str.1, ptr noundef %9)
  %10 = load ptr, ptr %4, align 8, !tbaa !31
  %11 = load ptr, ptr %5, align 8, !tbaa !7
  %12 = getelementptr inbounds nuw %struct.ossl_cc_newreno_st, ptr %11, i32 0, i32 17
  call void @unbind_diag(ptr noundef %10, ptr noundef @.str.2, ptr noundef %12)
  %13 = load ptr, ptr %4, align 8, !tbaa !31
  %14 = load ptr, ptr %5, align 8, !tbaa !7
  %15 = getelementptr inbounds nuw %struct.ossl_cc_newreno_st, ptr %14, i32 0, i32 18
  call void @unbind_diag(ptr noundef %13, ptr noundef @.str.3, ptr noundef %15)
  %16 = load ptr, ptr %4, align 8, !tbaa !31
  %17 = load ptr, ptr %5, align 8, !tbaa !7
  %18 = getelementptr inbounds nuw %struct.ossl_cc_newreno_st, ptr %17, i32 0, i32 19
  call void @unbind_diag(ptr noundef %16, ptr noundef @.str.4, ptr noundef %18)
  %19 = load ptr, ptr %4, align 8, !tbaa !31
  %20 = load ptr, ptr %5, align 8, !tbaa !7
  %21 = getelementptr inbounds nuw %struct.ossl_cc_newreno_st, ptr %20, i32 0, i32 20
  call void @unbind_diag(ptr noundef %19, ptr noundef @.str.5, ptr noundef %21)
  call void @llvm.lifetime.end.p0(i64 8, ptr %5) #6
  ret i32 1
}