; Function Attrs: nounwind uwtable
define internal noundef i32 @newreno_unbind_diagnostic(ptr noundef writeonly captures(none) %0, ptr noundef %1) #0 {
  %3 = tail call ptr @OSSL_PARAM_locate_const(ptr noundef %1, ptr noundef nonnull @.str.1) #8
  %.not.i = icmp eq ptr %3, null
  br i1 %.not.i, label %unbind_diag.exit, label %4

4:                                                ; preds = %2
  %5 = getelementptr inbounds nuw i8, ptr %0, i64 120
  store ptr null, ptr %5, align 8, !tbaa !38
  br label %unbind_diag.exit

unbind_diag.exit:                                 ; preds = %2, %4
  %6 = tail call ptr @OSSL_PARAM_locate_const(ptr noundef %1, ptr noundef nonnull @.str.2) #8
  %.not.i11 = icmp eq ptr %6, null
  br i1 %.not.i11, label %unbind_diag.exit12, label %7

7:                                                ; preds = %unbind_diag.exit
  %8 = getelementptr inbounds nuw i8, ptr %0, i64 128
  store ptr null, ptr %8, align 8, !tbaa !38
  br label %unbind_diag.exit12

unbind_diag.exit12:                               ; preds = %unbind_diag.exit, %7
  %9 = tail call ptr @OSSL_PARAM_locate_const(ptr noundef %1, ptr noundef nonnull @.str.3) #8
  %.not.i13 = icmp eq ptr %9, null
  br i1 %.not.i13, label %unbind_diag.exit14, label %10

10:                                               ; preds = %unbind_diag.exit12
  %11 = getelementptr inbounds nuw i8, ptr %0, i64 136
  store ptr null, ptr %11, align 8, !tbaa !38
  br label %unbind_diag.exit14

unbind_diag.exit14:                               ; preds = %unbind_diag.exit12, %10
  %12 = tail call ptr @OSSL_PARAM_locate_const(ptr noundef %1, ptr noundef nonnull @.str.4) #8
  %.not.i15 = icmp eq ptr %12, null
  br i1 %.not.i15, label %unbind_diag.exit16, label %13

13:                                               ; preds = %unbind_diag.exit14
  %14 = getelementptr inbounds nuw i8, ptr %0, i64 144
  store ptr null, ptr %14, align 8, !tbaa !38
  br label %unbind_diag.exit16

unbind_diag.exit16:                               ; preds = %unbind_diag.exit14, %13
  %15 = tail call ptr @OSSL_PARAM_locate_const(ptr noundef %1, ptr noundef nonnull @.str.5) #8
  %.not.i17 = icmp eq ptr %15, null
  br i1 %.not.i17, label %unbind_diag.exit18, label %16

16:                                               ; preds = %unbind_diag.exit16
  %17 = getelementptr inbounds nuw i8, ptr %0, i64 152
  store ptr null, ptr %17, align 8, !tbaa !38
  br label %unbind_diag.exit18

unbind_diag.exit18:                               ; preds = %unbind_diag.exit16, %16
  ret i32 1
}